; Function Attrs: nounwind uwtable
define noalias noundef ptr @If_ManCollectLatches(ptr noundef readonly captures(none) %0) local_unnamed_addr #2 {
  %2 = getelementptr inbounds nuw i8, ptr %0, i64 8
  %3 = load ptr, ptr %2, align 8, !tbaa !3
  %4 = getelementptr inbounds nuw i8, ptr %3, i64 248
  %5 = load i32, ptr %4, align 8, !tbaa !24
  %6 = tail call noalias dereferenceable_or_null(16) ptr @malloc(i64 noundef 16) #13
  %7 = add i32 %5, -1
  %or.cond.i = icmp ult i32 %7, 7
  %spec.store.select.i = select i1 %or.cond.i, i32 8, i32 %5
  %8 = getelementptr inbounds nuw i8, ptr %6, i64 4
  store i32 0, ptr %8, align 4, !tbaa !40
  store i32 %spec.store.select.i, ptr %6, align 8, !tbaa !41
  %.not.i = icmp eq i32 %spec.store.select.i, 0
  br i1 %.not.i, label %Vec_PtrAlloc.exit, label %9

9:                                                ; preds = %1
  %10 = sext i32 %spec.store.select.i to i64
  %11 = shl nsw i64 %10, 3
  %12 = tail call noalias ptr @malloc(i64 noundef %11) #13
  br label %Vec_PtrAlloc.exit

Vec_PtrAlloc.exit:                                ; preds = %1, %9
  %13 = phi ptr [ %12, %9 ], [ null, %1 ]
  %14 = getelementptr inbounds nuw i8, ptr %6, i64 8
  store ptr %13, ptr %14, align 8, !tbaa !31
  %15 = getelementptr i8, ptr %0, i64 72
  %.val21 = load i32, ptr %15, align 8, !tbaa !29
  %16 = getelementptr inbounds nuw i8, ptr %3, i64 256
  %17 = load i32, ptr %16, align 8, !tbaa !42
  %18 = add i32 %5, %17
  %19 = sub i32 %.val21, %18
  %20 = sub nsw i32 %.val21, %17
  %21 = icmp slt i32 %19, %20
  br i1 %21, label %.lr.ph, label %.critedge2

.lr.ph:                                           ; preds = %Vec_PtrAlloc.exit
  %22 = getelementptr inbounds nuw i8, ptr %0, i64 24
  %23 = sext i32 %19 to i64
  br label %25

.critedge.preheader:                              ; preds = %25
  %.val23.pre = load i32, ptr %8, align 4, !tbaa !40
  %24 = icmp sgt i32 %.val23.pre, 0
  br i1 %24, label %.lr.ph29, label %.critedge2

.lr.ph29:                                         ; preds = %.critedge.preheader
  %.val20 = load ptr, ptr %14, align 8, !tbaa !31
  %wide.trip.count = zext nneg i32 %.val23.pre to i64
  br label %.critedge

25:                                               ; preds = %.lr.ph, %25
  %indvars.iv = phi i64 [ %23, %.lr.ph ], [ %indvars.iv.next, %25 ]
  %26 = load ptr, ptr %22, align 8, !tbaa !34
  %27 = getelementptr i8, ptr %26, i64 8
  %.val = load ptr, ptr %27, align 8, !tbaa !31
  %28 = getelementptr inbounds ptr, ptr %.val, i64 %indvars.iv
  %29 = load ptr, ptr %28, align 8, !tbaa !33
  tail call void @If_ManCollectLatches_rec(ptr noundef %29, ptr noundef nonnull %6)
  %indvars.iv.next = add nsw i64 %indvars.iv, 1
  %.val22 = load i32, ptr %15, align 8, !tbaa !29
  %30 = load ptr, ptr %2, align 8, !tbaa !3
  %31 = getelementptr inbounds nuw i8, ptr %30, i64 256
  %32 = load i32, ptr %31, align 8, !tbaa !42
  %33 = sub nsw i32 %.val22, %32
  %34 = sext i32 %33 to i64
  %35 = icmp slt i64 %indvars.iv.next, %34
  br i1 %35, label %25, label %.critedge.preheader, !llvm.loop !43

.critedge:                                        ; preds = %.lr.ph29, %.critedge
  %indvars.iv31 = phi i64 [ 0, %.lr.ph29 ], [ %indvars.iv.next32, %.critedge ]
  %36 = getelementptr inbounds nuw ptr, ptr %.val20, i64 %indvars.iv31
  %37 = load ptr, ptr %36, align 8, !tbaa !33
  %38 = load i32, ptr %37, align 8
  %39 = and i32 %38, -257
  store i32 %39, ptr %37, align 8
  %indvars.iv.next32 = add nuw nsw i64 %indvars.iv31, 1
  %exitcond.not = icmp eq i64 %indvars.iv.next32, %wide.trip.count
  br i1 %exitcond.not, label %.critedge2, label %.critedge, !llvm.loop !44

.critedge2:                                       ; preds = %.critedge, %Vec_PtrAlloc.exit, %.critedge.preheader
  ret ptr %6
}